target datalayout = "e-m:e-p270:32:32-p271:32:32-p272:64:64-i64:64-i128:128-f80:128-n8:16:32:64-S128"
target triple = "x86_64-pc-linux-gnu"

@s5066_desegment = internal global i8 1, align 1
@s5066_header_size = internal global i32 5, align 4

; Function Attrs: null_pointer_is_valid sspstrong uwtable
define internal i32 @dissect_s5066_tcp(ptr noundef %0, ptr noundef %1, ptr noundef %2, ptr noundef %3) #0 {
  %5 = alloca i32, align 4
  %6 = alloca ptr, align 8
  %7 = alloca ptr, align 8
  %8 = alloca ptr, align 8
  %9 = alloca ptr, align 8
  store ptr %0, ptr %6, align 8
  store ptr %1, ptr %7, align 8
  store ptr %2, ptr %8, align 8
  store ptr %3, ptr %9, align 8
  %10 = load ptr, ptr %6, align 8
  %11 = call i32 @tvb_captured_length(ptr noundef %10)
  %12 = icmp ult i32 %11, 5
  br i1 %12, label %13, label %14

13:                                               ; preds = %4
  store i32 0, ptr %5, align 4
  br label %40

14:                                               ; preds = %4
  %15 = load ptr, ptr %6, align 8
  %16 = call zeroext i8 @tvb_get_uint8(ptr noundef %15, i32 noundef 0)
  %17 = zext i8 %16 to i32
  %18 = icmp ne i32 %17, 144
  br i1 %18, label %29, label %19

19:                                               ; preds = %14
  %20 = load ptr, ptr %6, align 8
  %21 = call zeroext i8 @tvb_get_uint8(ptr noundef %20, i32 noundef 1)
  %22 = zext i8 %21 to i32
  %23 = icmp ne i32 %22, 235
  br i1 %23, label %29, label %24

24:                                               ; preds = %19
  %25 = load ptr, ptr %6, align 8
  %26 = call zeroext i8 @tvb_get_uint8(ptr noundef %25, i32 noundef 2)
  %27 = zext i8 %26 to i32
  %28 = icmp ne i32 %27, 0
  br i1 %28, label %29, label %30

29:                                               ; preds = %24, %19, %14
  store i32 0, ptr %5, align 4
  br label %40

30:                                               ; preds = %24
  %31 = load ptr, ptr %6, align 8
  %32 = load ptr, ptr %7, align 8
  %33 = load ptr, ptr %8, align 8
  %34 = load i8, ptr @s5066_desegment, align 1, !range !6, !noundef !7
  %35 = trunc i8 %34 to i1
  %36 = load i32, ptr @s5066_header_size, align 4
  %37 = load ptr, ptr %9, align 8
  call void @tcp_dissect_pdus(ptr noundef %31, ptr noundef %32, ptr noundef %33, i1 noundef zeroext %35, i32 noundef %36, ptr noundef @get_s5066_pdu_len, ptr noundef @dissect_s5066_common, ptr noundef %37)
  %38 = load ptr, ptr %6, align 8
  %39 = call i32 @tvb_captured_length(ptr noundef %38)
  store i32 %39, ptr %5, align 4
  br label %40

40:                                               ; preds = %30, %29, %13
  %41 = load i32, ptr %5, align 4
  ret i32 %41
}