; Function Attrs: null_pointer_is_valid sspstrong uwtable
define internal i32 @dissect_s5066_tcp(ptr noundef %0, ptr noundef %1, ptr noundef %2, ptr noundef %3) #0 {
  %5 = tail call i32 @tvb_captured_length(ptr noundef %0)
  %6 = icmp ult i32 %5, 5
  br i1 %6, label %18, label %7

7:                                                ; preds = %4
  %8 = tail call zeroext i8 @tvb_get_uint8(ptr noundef %0, i32 noundef 0)
  %.not = icmp eq i8 %8, -112
  br i1 %.not, label %9, label %18

9:                                                ; preds = %7
  %10 = tail call zeroext i8 @tvb_get_uint8(ptr noundef %0, i32 noundef 1)
  %.not9 = icmp eq i8 %10, -21
  br i1 %.not9, label %11, label %18

11:                                               ; preds = %9
  %12 = tail call zeroext i8 @tvb_get_uint8(ptr noundef %0, i32 noundef 2)
  %.not10 = icmp eq i8 %12, 0
  br i1 %.not10, label %13, label %18

13:                                               ; preds = %11
  %14 = load i8, ptr @s5066_desegment, align 1, !range !6, !noundef !7
  %15 = trunc nuw i8 %14 to i1
  %.b = load i1, ptr @s5066_header_size, align 4
  %16 = select i1 %.b, i32 4, i32 5
  tail call void @tcp_dissect_pdus(ptr noundef %0, ptr noundef %1, ptr noundef %2, i1 noundef zeroext %15, i32 noundef %16, ptr noundef nonnull @get_s5066_pdu_len, ptr noundef nonnull @dissect_s5066_common, ptr noundef %3)
  %17 = tail call i32 @tvb_captured_length(ptr noundef %0)
  br label %18

18:                                               ; preds = %7, %9, %11, %4, %13
  %.0 = phi i32 [ %17, %13 ], [ 0, %4 ], [ 0, %11 ], [ 0, %9 ], [ 0, %7 ]
  ret i32 %.0
}